target datalayout = "e-m:e-p270:32:32-p271:32:32-p272:64:64-i64:64-i128:128-f80:128-n8:16:32:64-S128"
target triple = "x86_64-pc-linux-gnu"

%"class.std::__cxx11::basic_string" = type { %"struct.std::__cxx11::basic_string<char>::_Alloc_hider", i64, %union.anon }
%"struct.std::__cxx11::basic_string<char>::_Alloc_hider" = type { ptr }
%union.anon = type { i64, [8 x i8] }
%struct.pull_coord_work_t = type { %struct.t_pull_coord, %"class.std::unique_ptr", double, %struct.PullCoordSpatialData, double, i8, %"class.gmx::PullCoordExpressionParser", %"class.std::vector" }
%struct.t_pull_coord = type { i32, %"class.std::__cxx11::basic_string", i32, %"class.std::__cxx11::basic_string", double, i32, %"struct.std::array", %"class.gmx::BasicVector", %"class.gmx::BasicVector.0", %"class.gmx::BasicVector.0", i8, float, float, float, float, i32 }
%"struct.std::array" = type { [6 x i32] }
%"class.gmx::BasicVector" = type { [3 x i32] }
%"class.gmx::BasicVector.0" = type { [3 x float] }
%"class.std::unique_ptr" = type { %"struct.std::__uniq_ptr_data" }
%"struct.std::__uniq_ptr_data" = type { %"class.std::__uniq_ptr_impl" }
%"class.std::__uniq_ptr_impl" = type { %"class.std::tuple" }
%"class.std::tuple" = type { %"struct.std::_Tuple_impl" }
%"struct.std::_Tuple_impl" = type { %"struct.std::_Head_base.2" }
%"struct.std::_Head_base.2" = type { ptr }
%struct.PullCoordSpatialData = type { [3 x double], [3 x double], [3 x double], [3 x double], double, [3 x double], double, [3 x double], [3 x double], double }
%"class.gmx::PullCoordExpressionParser" = type { %"class.std::__cxx11::basic_string", %"class.std::vector", %"class.std::unique_ptr.6" }
%"class.std::unique_ptr.6" = type { %"struct.std::__uniq_ptr_data.7" }
%"struct.std::__uniq_ptr_data.7" = type { %"class.std::__uniq_ptr_impl.8" }
%"class.std::__uniq_ptr_impl.8" = type { %"class.std::tuple.9" }
%"class.std::tuple.9" = type { %"struct.std::_Tuple_impl.10" }
%"struct.std::_Tuple_impl.10" = type { %"struct.std::_Head_base.13" }
%"struct.std::_Head_base.13" = type { ptr }
%"class.std::vector" = type { %"struct.std::_Vector_base" }
%"struct.std::_Vector_base" = type { %"struct.std::_Vector_base<double, std::allocator<double>>::_Vector_impl" }
%"struct.std::_Vector_base<double, std::allocator<double>>::_Vector_impl" = type { %"struct.std::_Vector_base<double, std::allocator<double>>::_Vector_impl_data" }
%"struct.std::_Vector_base<double, std::allocator<double>>::_Vector_impl_data" = type { ptr, ptr, ptr }
%"class.gmx::ArrayRef.30" = type { %"struct.gmx::ArrayRefIter.31", %"struct.gmx::ArrayRefIter.31" }
%"struct.gmx::ArrayRefIter.31" = type { ptr }

@debug = external global ptr, align 8
@.str.8 = private unnamed_addr constant [93 x i8] c"Distributing force %4.4f for transformation coordinate %d to coordinate %d with force %4.4f\0A\00", align 1

; Function Attrs: mustprogress nounwind uwtable
define linkonce_odr noundef i64 @_ZNK3gmx12ArrayRefIterI17pull_coord_work_tEmiES2_(ptr noundef nonnull align 8 dereferenceable(8) %0, ptr %1) #6 comdat align 2 {
  %3 = alloca %"struct.gmx::ArrayRefIter.31", align 8
  %4 = alloca ptr, align 8
  %5 = getelementptr inbounds %"struct.gmx::ArrayRefIter.31", ptr %3, i32 0, i32 0
  store ptr %1, ptr %5, align 8
  store ptr %0, ptr %4, align 8
  %6 = load ptr, ptr %4, align 8
  %7 = getelementptr inbounds %"struct.gmx::ArrayRefIter.31", ptr %6, i32 0, i32 0
  %8 = load ptr, ptr %7, align 8
  %9 = getelementptr inbounds %"struct.gmx::ArrayRefIter.31", ptr %3, i32 0, i32 0
  %10 = load ptr, ptr %9, align 8
  %11 = ptrtoint ptr %8 to i64
  %12 = ptrtoint ptr %10 to i64
  %13 = sub i64 %11, %12
  %14 = sdiv exact i64 %13, 488
  ret i64 %14
}

; Function Attrs: mustprogress nounwind uwtable
define linkonce_odr noundef i64 @_ZN3gmx5boost14stl_interfaces6detail11common_diffINS_12ArrayRefIterI17pull_coord_work_tEES6_EEDTmiscNSt11conditionalIXsr3std14is_convertibleIT_T0_EE5valueES9_S8_E4typeEfp_scSB_fp0_ES8_S9_(ptr %0, ptr %1) #6 comdat {
  %3 = alloca %"struct.gmx::ArrayRefIter.31", align 8
  %4 = alloca %"struct.gmx::ArrayRefIter.31", align 8
  %5 = alloca %"struct.gmx::ArrayRefIter.31", align 8
  %6 = alloca %"struct.gmx::ArrayRefIter.31", align 8
  %7 = getelementptr inbounds %"struct.gmx::ArrayRefIter.31", ptr %3, i32 0, i32 0
  store ptr %0, ptr %7, align 8
  %8 = getelementptr inbounds %"struct.gmx::ArrayRefIter.31", ptr %4, i32 0, i32 0
  store ptr %1, ptr %8, align 8
  call void @llvm.memcpy.p0.p0.i64(ptr align 8 %5, ptr align 8 %3, i64 8, i1 false)
  call void @llvm.memcpy.p0.p0.i64(ptr align 8 %6, ptr align 8 %4, i64 8, i1 false)
  %9 = getelementptr inbounds %"struct.gmx::ArrayRefIter.31", ptr %6, i32 0, i32 0
  %10 = load ptr, ptr %9, align 8
  %11 = call noundef i64 @_ZNK3gmx12ArrayRefIterI17pull_coord_work_tEmiES2_(ptr noundef nonnull align 8 dereferenceable(8) %5, ptr %10) #3
  ret i64 %11
}

; Function Attrs: mustprogress nounwind uwtable
define linkonce_odr noundef nonnull align 8 dereferenceable(8) ptr @_ZN3gmx12ArrayRefIterI17pull_coord_work_tEpLEl(ptr noundef nonnull align 8 dereferenceable(8) %0, i64 noundef %1) #6 comdat align 2 {
  %3 = alloca ptr, align 8
  %4 = alloca i64, align 8
  store ptr %0, ptr %3, align 8
  store i64 %1, ptr %4, align 8
  %5 = load ptr, ptr %3, align 8
  %6 = load i64, ptr %4, align 8
  %7 = getelementptr inbounds %"struct.gmx::ArrayRefIter.31", ptr %5, i32 0, i32 0
  %8 = load ptr, ptr %7, align 8
  %9 = getelementptr inbounds %struct.pull_coord_work_t, ptr %8, i64 %6
  store ptr %9, ptr %7, align 8
  ret ptr %5
}

; Function Attrs: mustprogress nounwind uwtable
define linkonce_odr noundef nonnull align 8 dereferenceable(8) ptr @_ZN3gmx5boost14stl_interfaces2v118iterator_interfaceINS_12ArrayRefIterI17pull_coord_work_tEESt26random_access_iterator_tagS5_RS5_PS5_lvE7derivedEv(ptr noundef nonnull align 1 dereferenceable(1) %0) #6 comdat align 2 {
  %2 = alloca ptr, align 8
  store ptr %0, ptr %2, align 8
  %3 = load ptr, ptr %2, align 8
  ret ptr %3
}

; Function Attrs: mustprogress nounwind uwtable
define linkonce_odr noundef nonnull align 8 dereferenceable(8) ptr @_ZNSt6vectorIdSaIdEEixEm(ptr noundef nonnull align 8 dereferenceable(24) %0, i64 noundef %1) #6 comdat align 2 {
  %3 = alloca ptr, align 8
  %4 = alloca i64, align 8
  store ptr %0, ptr %3, align 8
  store i64 %1, ptr %4, align 8
  %5 = load ptr, ptr %3, align 8
  %6 = getelementptr inbounds %"struct.std::_Vector_base", ptr %5, i32 0, i32 0
  %7 = getelementptr inbounds %"struct.std::_Vector_base<double, std::allocator<double>>::_Vector_impl_data", ptr %6, i32 0, i32 0
  %8 = load ptr, ptr %7, align 8
  %9 = load i64, ptr %4, align 8
  %10 = getelementptr inbounds double, ptr %8, i64 %9
  ret ptr %10
}

; Function Attrs: mustprogress nounwind uwtable
define linkonce_odr noundef zeroext i1 @_ZN3gmx5boost14stl_interfaces2v1eqINS_12ArrayRefIterI17pull_coord_work_tEES6_vEEDTcmclsr6v1_dtlE16derived_iteratorfp_Eeqclsr6detailE11common_difffp_fp0_ELi0EET_T0_(ptr %0, ptr %1) #6 comdat {
  %3 = alloca %"struct.gmx::ArrayRefIter.31", align 8
  %4 = alloca %"struct.gmx::ArrayRefIter.31", align 8
  %5 = alloca %"struct.gmx::ArrayRefIter.31", align 8
  %6 = alloca %"struct.gmx::ArrayRefIter.31", align 8
  %7 = getelementptr inbounds %"struct.gmx::ArrayRefIter.31", ptr %3, i32 0, i32 0
  store ptr %0, ptr %7, align 8
  %8 = getelementptr inbounds %"struct.gmx::ArrayRefIter.31", ptr %4, i32 0, i32 0
  store ptr %1, ptr %8, align 8
  call void @llvm.memcpy.p0.p0.i64(ptr align 8 %5, ptr align 8 %3, i64 8, i1 false)
  call void @llvm.memcpy.p0.p0.i64(ptr align 8 %6, ptr align 8 %4, i64 8, i1 false)
  %9 = getelementptr inbounds %"struct.gmx::ArrayRefIter.31", ptr %5, i32 0, i32 0
  %10 = load ptr, ptr %9, align 8
  %11 = getelementptr inbounds %"struct.gmx::ArrayRefIter.31", ptr %6, i32 0, i32 0
  %12 = load ptr, ptr %11, align 8
  %13 = call noundef i64 @_ZN3gmx5boost14stl_interfaces6detail11common_diffINS_12ArrayRefIterI17pull_coord_work_tEES6_EEDTmiscNSt11conditionalIXsr3std14is_convertibleIT_T0_EE5valueES9_S8_E4typeEfp_scSB_fp0_ES8_S9_(ptr %10, ptr %12) #3
  %14 = icmp eq i64 %13, 0
  ret i1 %14
}

; Function Attrs: mustprogress nounwind uwtable
define linkonce_odr noundef nonnull align 8 dereferenceable(8) ptr @_ZN3gmx5boost14stl_interfaces2v118iterator_interfaceINS_12ArrayRefIterI17pull_coord_work_tEESt26random_access_iterator_tagS5_RS5_PS5_lvEppIS6_EEDTcmpLclsr3stdE7declvalIRT_EEcvlLi1Eclsr3stdE7declvalISD_EEEv(ptr noundef nonnull align 1 dereferenceable(1) %0) #6 comdat align 2 {
  %2 = alloca ptr, align 8
  store ptr %0, ptr %2, align 8
  %3 = load ptr, ptr %2, align 8
  %4 = call noundef nonnull align 8 dereferenceable(8) ptr @_ZN3gmx5boost14stl_interfaces2v118iterator_interfaceINS_12ArrayRefIterI17pull_coord_work_tEESt26random_access_iterator_tagS5_RS5_PS5_lvE7derivedEv(ptr noundef nonnull align 1 dereferenceable(1) %3) #3
  %5 = call noundef nonnull align 8 dereferenceable(8) ptr @_ZN3gmx12ArrayRefIterI17pull_coord_work_tEpLEl(ptr noundef nonnull align 8 dereferenceable(8) %4, i64 noundef 1) #3
  %6 = call noundef nonnull align 8 dereferenceable(8) ptr @_ZN3gmx5boost14stl_interfaces2v118iterator_interfaceINS_12ArrayRefIterI17pull_coord_work_tEESt26random_access_iterator_tagS5_RS5_PS5_lvE7derivedEv(ptr noundef nonnull align 1 dereferenceable(1) %3) #3
  ret ptr %6
}

; Function Attrs: mustprogress uwtable
define internal noundef double @_ZN3gmxL43computeDerivativeForTransformationPullCoordEP17pull_coord_work_ti(ptr noundef %0, i32 noundef %1) #4 {
  %3 = alloca ptr, align 8
  %4 = alloca i32, align 4
  %5 = alloca double, align 8
  %6 = alloca double, align 8
  %7 = alloca double, align 8
  %8 = alloca double, align 8
  %9 = alloca double, align 8
  store ptr %0, ptr %3, align 8
  store i32 %1, ptr %4, align 4
  %10 = load ptr, ptr %3, align 8
  %11 = getelementptr inbounds %struct.pull_coord_work_t, ptr %10, i32 0, i32 3
  %12 = getelementptr inbounds %struct.PullCoordSpatialData, ptr %11, i32 0, i32 9
  %13 = load double, ptr %12, align 8
  store double %13, ptr %5, align 8
  %14 = load ptr, ptr %3, align 8
  %15 = getelementptr inbounds %struct.pull_coord_work_t, ptr %14, i32 0, i32 7
  %16 = load i32, ptr %4, align 4
  %17 = sext i32 %16 to i64
  %18 = call noundef nonnull align 8 dereferenceable(8) ptr @_ZNSt6vectorIdSaIdEEixEm(ptr noundef nonnull align 8 dereferenceable(24) %15, i64 noundef %17) #3
  %19 = load double, ptr %18, align 8
  store double %19, ptr %6, align 8
  %20 = load ptr, ptr %3, align 8
  %21 = getelementptr inbounds %struct.pull_coord_work_t, ptr %20, i32 0, i32 0
  %22 = getelementptr inbounds %struct.t_pull_coord, ptr %21, i32 0, i32 4
  %23 = load double, ptr %22, align 8
  store double %23, ptr %7, align 8
  %24 = load double, ptr %7, align 8
  %25 = load ptr, ptr %3, align 8
  %26 = getelementptr inbounds %struct.pull_coord_work_t, ptr %25, i32 0, i32 7
  %27 = load i32, ptr %4, align 4
  %28 = sext i32 %27 to i64
  %29 = call noundef nonnull align 8 dereferenceable(8) ptr @_ZNSt6vectorIdSaIdEEixEm(ptr noundef nonnull align 8 dereferenceable(24) %26, i64 noundef %28) #3
  %30 = load double, ptr %29, align 8
  %31 = fadd double %30, %24
  store double %31, ptr %29, align 8
  %32 = load ptr, ptr %3, align 8
  %33 = call noundef double @_ZN3gmx12_GLOBAL__N_136getTransformationPullCoordinateValueEP17pull_coord_work_t(ptr noundef %32)
  store double %33, ptr %8, align 8
  %34 = load double, ptr %8, align 8
  %35 = load double, ptr %5, align 8
  %36 = fsub double %34, %35
  %37 = load double, ptr %7, align 8
  %38 = fdiv double %36, %37
  store double %38, ptr %9, align 8
  %39 = load double, ptr %6, align 8
  %40 = load ptr, ptr %3, align 8
  %41 = getelementptr inbounds %struct.pull_coord_work_t, ptr %40, i32 0, i32 7
  %42 = load i32, ptr %4, align 4
  %43 = sext i32 %42 to i64
  %44 = call noundef nonnull align 8 dereferenceable(8) ptr @_ZNSt6vectorIdSaIdEEixEm(ptr noundef nonnull align 8 dereferenceable(24) %41, i64 noundef %43) #3
  store double %39, ptr %44, align 8
  %45 = load double, ptr %9, align 8
  ret double %45
}

; Function Attrs: mustprogress nounwind uwtable
define linkonce_odr noundef nonnull align 8 dereferenceable(488) ptr @_ZNK3gmx12ArrayRefIterI17pull_coord_work_tEdeEv(ptr noundef nonnull align 8 dereferenceable(8) %0) #6 comdat align 2 {
  %2 = alloca ptr, align 8
  store ptr %0, ptr %2, align 8
  %3 = load ptr, ptr %2, align 8
  %4 = getelementptr inbounds %"struct.gmx::ArrayRefIter.31", ptr %3, i32 0, i32 0
  %5 = load ptr, ptr %4, align 8
  ret ptr %5
}

; Function Attrs: mustprogress nounwind uwtable
define linkonce_odr noundef zeroext i1 @_ZN3gmx5boost14stl_interfaces2v1neINS_12ArrayRefIterI17pull_coord_work_tEES6_EEDTcmclsr6v1_dtlE16derived_iteratorfp_Enteqfp_fp0_ET_T0_(ptr %0, ptr %1) #6 comdat {
  %3 = alloca %"struct.gmx::ArrayRefIter.31", align 8
  %4 = alloca %"struct.gmx::ArrayRefIter.31", align 8
  %5 = alloca %"struct.gmx::ArrayRefIter.31", align 8
  %6 = alloca %"struct.gmx::ArrayRefIter.31", align 8
  %7 = getelementptr inbounds %"struct.gmx::ArrayRefIter.31", ptr %3, i32 0, i32 0
  store ptr %0, ptr %7, align 8
  %8 = getelementptr inbounds %"struct.gmx::ArrayRefIter.31", ptr %4, i32 0, i32 0
  store ptr %1, ptr %8, align 8
  call void @llvm.memcpy.p0.p0.i64(ptr align 8 %5, ptr align 8 %3, i64 8, i1 false)
  call void @llvm.memcpy.p0.p0.i64(ptr align 8 %6, ptr align 8 %4, i64 8, i1 false)
  %9 = getelementptr inbounds %"struct.gmx::ArrayRefIter.31", ptr %5, i32 0, i32 0
  %10 = load ptr, ptr %9, align 8
  %11 = getelementptr inbounds %"struct.gmx::ArrayRefIter.31", ptr %6, i32 0, i32 0
  %12 = load ptr, ptr %11, align 8
  %13 = call noundef zeroext i1 @_ZN3gmx5boost14stl_interfaces2v1eqINS_12ArrayRefIterI17pull_coord_work_tEES6_vEEDTcmclsr6v1_dtlE16derived_iteratorfp_Eeqclsr6detailE11common_difffp_fp0_ELi0EET_T0_(ptr %10, ptr %12) #3
  %14 = xor i1 %13, true
  ret i1 %14
}

; Function Attrs: mustprogress nounwind uwtable
define linkonce_odr ptr @_ZNK3gmx8ArrayRefI17pull_coord_work_tE3endEv(ptr noundef nonnull align 8 dereferenceable(16) %0) #6 comdat align 2 {
  %2 = alloca %"struct.gmx::ArrayRefIter.31", align 8
  %3 = alloca ptr, align 8
  store ptr %0, ptr %3, align 8
  %4 = load ptr, ptr %3, align 8
  %5 = getelementptr inbounds %"class.gmx::ArrayRef.30", ptr %4, i32 0, i32 1
  call void @llvm.memcpy.p0.p0.i64(ptr align 8 %2, ptr align 8 %5, i64 8, i1 false)
  %6 = getelementptr inbounds %"struct.gmx::ArrayRefIter.31", ptr %2, i32 0, i32 0
  %7 = load ptr, ptr %6, align 8
  ret ptr %7
}

; Function Attrs: mustprogress nounwind uwtable
define linkonce_odr ptr @_ZNK3gmx8ArrayRefI17pull_coord_work_tE5beginEv(ptr noundef nonnull align 8 dereferenceable(16) %0) #6 comdat align 2 {
  %2 = alloca %"struct.gmx::ArrayRefIter.31", align 8
  %3 = alloca ptr, align 8
  store ptr %0, ptr %3, align 8
  %4 = load ptr, ptr %3, align 8
  %5 = getelementptr inbounds %"class.gmx::ArrayRef.30", ptr %4, i32 0, i32 0
  call void @llvm.memcpy.p0.p0.i64(ptr align 8 %2, ptr align 8 %5, i64 8, i1 false)
  %6 = getelementptr inbounds %"struct.gmx::ArrayRefIter.31", ptr %2, i32 0, i32 0
  %7 = load ptr, ptr %6, align 8
  ret ptr %7
}

; Function Attrs: mustprogress uwtable
define void @_ZN3gmx38distributeTransformationPullCoordForceEP17pull_coord_work_tNS_8ArrayRefIS0_EE(ptr noundef %0, ptr %1, ptr %2) #4 {
  %4 = alloca %"class.gmx::ArrayRef.30", align 8
  %5 = alloca ptr, align 8
  %6 = alloca double, align 8
  %7 = alloca ptr, align 8
  %8 = alloca %"struct.gmx::ArrayRefIter.31", align 8
  %9 = alloca %"struct.gmx::ArrayRefIter.31", align 8
  %10 = alloca %"struct.gmx::ArrayRefIter.31", align 8
  %11 = alloca %"struct.gmx::ArrayRefIter.31", align 8
  %12 = alloca ptr, align 8
  %13 = alloca double, align 8
  %14 = alloca double, align 8
  %15 = getelementptr inbounds { ptr, ptr }, ptr %4, i32 0, i32 0
  store ptr %1, ptr %15, align 8
  %16 = getelementptr inbounds { ptr, ptr }, ptr %4, i32 0, i32 1
  store ptr %2, ptr %16, align 8
  store ptr %0, ptr %5, align 8
  %17 = load ptr, ptr %5, align 8
  %18 = getelementptr inbounds %struct.pull_coord_work_t, ptr %17, i32 0, i32 4
  %19 = load double, ptr %18, align 8
  store double %19, ptr %6, align 8
  store ptr %4, ptr %7, align 8
  %20 = load ptr, ptr %7, align 8
  %21 = call ptr @_ZNK3gmx8ArrayRefI17pull_coord_work_tE5beginEv(ptr noundef nonnull align 8 dereferenceable(16) %20)
  %22 = getelementptr inbounds %"struct.gmx::ArrayRefIter.31", ptr %8, i32 0, i32 0
  store ptr %21, ptr %22, align 8
  %23 = load ptr, ptr %7, align 8
  %24 = call ptr @_ZNK3gmx8ArrayRefI17pull_coord_work_tE3endEv(ptr noundef nonnull align 8 dereferenceable(16) %23)
  %25 = getelementptr inbounds %"struct.gmx::ArrayRefIter.31", ptr %9, i32 0, i32 0
  store ptr %24, ptr %25, align 8
  br label %26

26:                                               ; preds = %68, %3
  call void @llvm.memcpy.p0.p0.i64(ptr align 8 %10, ptr align 8 %8, i64 8, i1 false)
  call void @llvm.memcpy.p0.p0.i64(ptr align 8 %11, ptr align 8 %9, i64 8, i1 false)
  %27 = getelementptr inbounds %"struct.gmx::ArrayRefIter.31", ptr %10, i32 0, i32 0
  %28 = load ptr, ptr %27, align 8
  %29 = getelementptr inbounds %"struct.gmx::ArrayRefIter.31", ptr %11, i32 0, i32 0
  %30 = load ptr, ptr %29, align 8
  %31 = call noundef zeroext i1 @_ZN3gmx5boost14stl_interfaces2v1neINS_12ArrayRefIterI17pull_coord_work_tEES6_EEDTcmclsr6v1_dtlE16derived_iteratorfp_Enteqfp_fp0_ET_T0_(ptr %28, ptr %30) #3
  br i1 %31, label %32, label %70

32:                                               ; preds = %26
  %33 = call noundef nonnull align 8 dereferenceable(488) ptr @_ZNK3gmx12ArrayRefIterI17pull_coord_work_tEdeEv(ptr noundef nonnull align 8 dereferenceable(8) %8) #3
  store ptr %33, ptr %12, align 8
  %34 = load ptr, ptr %5, align 8
  %35 = load ptr, ptr %12, align 8
  %36 = getelementptr inbounds %struct.pull_coord_work_t, ptr %35, i32 0, i32 0
  %37 = getelementptr inbounds %struct.t_pull_coord, ptr %36, i32 0, i32 15
  %38 = load i32, ptr %37, align 4
  %39 = call noundef double @_ZN3gmxL43computeDerivativeForTransformationPullCoordEP17pull_coord_work_ti(ptr noundef %34, i32 noundef %38)
  store double %39, ptr %13, align 8
  %40 = load double, ptr %6, align 8
  %41 = load double, ptr %13, align 8
  %42 = fmul double %40, %41
  store double %42, ptr %14, align 8
  %43 = load double, ptr %14, align 8
  %44 = fcmp une double %43, 0.000000e+00
  br i1 %44, label %45, label %67

45:                                               ; preds = %32
  %46 = load ptr, ptr @debug, align 8
  %47 = icmp ne ptr %46, null
  br i1 %47, label %48, label %61

48:                                               ; preds = %45
  %49 = load ptr, ptr @debug, align 8
  %50 = load double, ptr %6, align 8
  %51 = load ptr, ptr %5, align 8
  %52 = getelementptr inbounds %struct.pull_coord_work_t, ptr %51, i32 0, i32 0
  %53 = getelementptr inbounds %struct.t_pull_coord, ptr %52, i32 0, i32 15
  %54 = load i32, ptr %53, align 4
  %55 = load ptr, ptr %12, align 8
  %56 = getelementptr inbounds %struct.pull_coord_work_t, ptr %55, i32 0, i32 0
  %57 = getelementptr inbounds %struct.t_pull_coord, ptr %56, i32 0, i32 15
  %58 = load i32, ptr %57, align 4
  %59 = load double, ptr %14, align 8
  %60 = call i32 (ptr, ptr, ...) @fprintf(ptr noundef %49, ptr noundef @.str.8, double noundef %50, i32 noundef %54, i32 noundef %58, double noundef %59) #3
  br label %61

61:                                               ; preds = %48, %45
  %62 = load double, ptr %14, align 8
  %63 = load ptr, ptr %12, align 8
  %64 = getelementptr inbounds %struct.pull_coord_work_t, ptr %63, i32 0, i32 4
  %65 = load double, ptr %64, align 8
  %66 = fadd double %65, %62
  store double %66, ptr %64, align 8
  br label %67

67:                                               ; preds = %61, %32
  br label %68

68:                                               ; preds = %67
  %69 = call noundef nonnull align 8 dereferenceable(8) ptr @_ZN3gmx5boost14stl_interfaces2v118iterator_interfaceINS_12ArrayRefIterI17pull_coord_work_tEESt26random_access_iterator_tagS5_RS5_PS5_lvEppIS6_EEDTcmpLclsr3stdE7declvalIRT_EEcvlLi1Eclsr3stdE7declvalISD_EEEv(ptr noundef nonnull align 1 dereferenceable(1) %8) #3
  br label %26

70:                                               ; preds = %26
  ret void
}