; Function Attrs: mustprogress uwtable
define void @_ZN3gmx38distributeTransformationPullCoordForceEP17pull_coord_work_tNS_8ArrayRefIS0_EE(ptr noundef %0, ptr %1, ptr readnone %2) local_unnamed_addr #5 {
  %4 = getelementptr inbounds i8, ptr %0, i64 384
  %5 = load double, ptr %4, align 8
  %.not2021 = icmp eq ptr %1, %2
  br i1 %.not2021, label %._crit_edge, label %.lr.ph

.lr.ph:                                           ; preds = %3
  %6 = getelementptr inbounds i8, ptr %0, i64 376
  %7 = getelementptr inbounds i8, ptr %0, i64 464
  %8 = getelementptr inbounds i8, ptr %0, i64 80
  %9 = getelementptr inbounds i8, ptr %0, i64 172
  br label %10

10:                                               ; preds = %.lr.ph, %37
  %.sroa.0.022 = phi ptr [ %1, %.lr.ph ], [ %38, %37 ]
  %11 = getelementptr inbounds i8, ptr %.sroa.0.022, i64 172
  %12 = load i32, ptr %11, align 4
  %13 = load double, ptr %6, align 8
  %14 = sext i32 %12 to i64
  %15 = load ptr, ptr %7, align 8
  %16 = getelementptr inbounds double, ptr %15, i64 %14
  %17 = load double, ptr %16, align 8
  %18 = load double, ptr %8, align 8
  %19 = fadd double %17, %18
  store double %19, ptr %16, align 8
  %20 = tail call fastcc noundef double @_ZN3gmx12_GLOBAL__N_136getTransformationPullCoordinateValueEP17pull_coord_work_t(ptr noundef nonnull %0)
  %21 = fsub double %20, %13
  %22 = fdiv double %21, %18
  %23 = load ptr, ptr %7, align 8
  %24 = getelementptr inbounds double, ptr %23, i64 %14
  store double %17, ptr %24, align 8
  %25 = fmul double %5, %22
  %26 = fcmp une double %25, 0.000000e+00
  br i1 %26, label %27, label %37

27:                                               ; preds = %10
  %28 = load ptr, ptr @debug, align 8
  %.not = icmp eq ptr %28, null
  br i1 %.not, label %33, label %29

29:                                               ; preds = %27
  %30 = load i32, ptr %9, align 4
  %31 = load i32, ptr %11, align 4
  %32 = tail call i32 (ptr, ptr, ...) @fprintf(ptr noundef nonnull %28, ptr noundef nonnull @.str.8, double noundef %5, i32 noundef %30, i32 noundef %31, double noundef %25) #15
  br label %33

33:                                               ; preds = %29, %27
  %34 = getelementptr inbounds i8, ptr %.sroa.0.022, i64 384
  %35 = load double, ptr %34, align 8
  %36 = fadd double %25, %35
  store double %36, ptr %34, align 8
  br label %37

37:                                               ; preds = %10, %33
  %38 = getelementptr inbounds i8, ptr %.sroa.0.022, i64 488
  %.not20 = icmp eq ptr %38, %2
  br i1 %.not20, label %._crit_edge, label %10

._crit_edge:                                      ; preds = %37, %3
  ret void
}